target datalayout = "e-m:e-p270:32:32-p271:32:32-p272:64:64-i64:64-i128:128-f80:128-n8:16:32:64-S128"
target triple = "x86_64-pc-linux-gnu"

%struct.AVComplexDouble = type { double, double }
%struct.AVTXContext = type { i32, i32, ptr, ptr, ptr, ptr, [4 x ptr], i32, [4 x ptr], ptr, i32, i64, i32, float, double, ptr }

; Function Attrs: nounwind uwtable
define internal void @ff_tx_fft_naive_small_double_c(ptr noundef %0, ptr noundef %1, ptr noundef %2, i64 noundef %3) #4 {
  %5 = alloca ptr, align 8
  %6 = alloca ptr, align 8
  %7 = alloca ptr, align 8
  %8 = alloca i64, align 8
  %9 = alloca ptr, align 8
  %10 = alloca ptr, align 8
  %11 = alloca i32, align 4
  %12 = alloca i32, align 4
  %13 = alloca i32, align 4
  %14 = alloca %struct.AVComplexDouble, align 8
  %15 = alloca i32, align 4
  %16 = alloca %struct.AVComplexDouble, align 8
  %17 = alloca %struct.AVComplexDouble, align 8
  store ptr %0, ptr %5, align 8, !tbaa !17
  store ptr %1, ptr %6, align 8, !tbaa !8
  store ptr %2, ptr %7, align 8, !tbaa !8
  store i64 %3, ptr %8, align 8, !tbaa !30
  call void @llvm.lifetime.start.p0(i64 8, ptr %9) #10
  %18 = load ptr, ptr %7, align 8, !tbaa !8
  store ptr %18, ptr %9, align 8, !tbaa !59
  call void @llvm.lifetime.start.p0(i64 8, ptr %10) #10
  %19 = load ptr, ptr %6, align 8, !tbaa !8
  store ptr %19, ptr %10, align 8, !tbaa !59
  call void @llvm.lifetime.start.p0(i64 4, ptr %11) #10
  %20 = load ptr, ptr %5, align 8, !tbaa !17
  %21 = getelementptr inbounds nuw %struct.AVTXContext, ptr %20, i32 0, i32 0
  %22 = load i32, ptr %21, align 8, !tbaa !21
  store i32 %22, ptr %11, align 4, !tbaa !4
  %23 = load i64, ptr %8, align 8, !tbaa !30
  %24 = udiv i64 %23, 16
  store i64 %24, ptr %8, align 8, !tbaa !30
  call void @llvm.lifetime.start.p0(i64 4, ptr %12) #10
  store i32 0, ptr %12, align 4, !tbaa !4
  br label %25

25:                                               ; preds = %107, %4
  %26 = load i32, ptr %12, align 4, !tbaa !4
  %27 = load i32, ptr %11, align 4, !tbaa !4
  %28 = icmp slt i32 %26, %27
  br i1 %28, label %30, label %29

29:                                               ; preds = %25
  store i32 2, ptr %13, align 4
  call void @llvm.lifetime.end.p0(i64 4, ptr %12) #10
  br label %110

30:                                               ; preds = %25
  call void @llvm.lifetime.start.p0(i64 16, ptr %14) #10
  call void @llvm.memset.p0.i64(ptr align 8 %14, i8 0, i64 16, i1 false)
  call void @llvm.lifetime.start.p0(i64 4, ptr %15) #10
  store i32 0, ptr %15, align 4, !tbaa !4
  br label %31

31:                                               ; preds = %97, %30
  %32 = load i32, ptr %15, align 4, !tbaa !4
  %33 = load i32, ptr %11, align 4, !tbaa !4
  %34 = icmp slt i32 %32, %33
  br i1 %34, label %36, label %35

35:                                               ; preds = %31
  store i32 5, ptr %13, align 4
  call void @llvm.lifetime.end.p0(i64 4, ptr %15) #10
  br label %100

36:                                               ; preds = %31
  call void @llvm.lifetime.start.p0(i64 16, ptr %16) #10
  call void @llvm.lifetime.start.p0(i64 16, ptr %17) #10
  %37 = load ptr, ptr %5, align 8, !tbaa !17
  %38 = getelementptr inbounds nuw %struct.AVTXContext, ptr %37, i32 0, i32 3
  %39 = load ptr, ptr %38, align 8, !tbaa !31
  %40 = load i32, ptr %12, align 4, !tbaa !4
  %41 = load i32, ptr %15, align 4, !tbaa !4
  %42 = mul nsw i32 %40, %41
  %43 = sext i32 %42 to i64
  %44 = getelementptr inbounds %struct.AVComplexDouble, ptr %39, i64 %43
  call void @llvm.memcpy.p0.p0.i64(ptr align 8 %17, ptr align 8 %44, i64 16, i1 false), !tbaa.struct !35
  br label %45

45:                                               ; preds = %36
  %46 = load ptr, ptr %9, align 8, !tbaa !59
  %47 = load i32, ptr %15, align 4, !tbaa !4
  %48 = sext i32 %47 to i64
  %49 = getelementptr inbounds %struct.AVComplexDouble, ptr %46, i64 %48
  %50 = getelementptr inbounds nuw %struct.AVComplexDouble, ptr %49, i32 0, i32 0
  %51 = load double, ptr %50, align 8, !tbaa !32
  %52 = getelementptr inbounds nuw %struct.AVComplexDouble, ptr %17, i32 0, i32 0
  %53 = load double, ptr %52, align 8, !tbaa !32
  %54 = load ptr, ptr %9, align 8, !tbaa !59
  %55 = load i32, ptr %15, align 4, !tbaa !4
  %56 = sext i32 %55 to i64
  %57 = getelementptr inbounds %struct.AVComplexDouble, ptr %54, i64 %56
  %58 = getelementptr inbounds nuw %struct.AVComplexDouble, ptr %57, i32 0, i32 1
  %59 = load double, ptr %58, align 8, !tbaa !34
  %60 = getelementptr inbounds nuw %struct.AVComplexDouble, ptr %17, i32 0, i32 1
  %61 = load double, ptr %60, align 8, !tbaa !34
  %62 = fmul nsz double %59, %61
  %63 = fneg nsz double %62
  %64 = call nsz double @llvm.fmuladd.f64(double %51, double %53, double %63)
  %65 = getelementptr inbounds nuw %struct.AVComplexDouble, ptr %16, i32 0, i32 0
  store double %64, ptr %65, align 8, !tbaa !32
  %66 = load ptr, ptr %9, align 8, !tbaa !59
  %67 = load i32, ptr %15, align 4, !tbaa !4
  %68 = sext i32 %67 to i64
  %69 = getelementptr inbounds %struct.AVComplexDouble, ptr %66, i64 %68
  %70 = getelementptr inbounds nuw %struct.AVComplexDouble, ptr %69, i32 0, i32 0
  %71 = load double, ptr %70, align 8, !tbaa !32
  %72 = getelementptr inbounds nuw %struct.AVComplexDouble, ptr %17, i32 0, i32 1
  %73 = load double, ptr %72, align 8, !tbaa !34
  %74 = load ptr, ptr %9, align 8, !tbaa !59
  %75 = load i32, ptr %15, align 4, !tbaa !4
  %76 = sext i32 %75 to i64
  %77 = getelementptr inbounds %struct.AVComplexDouble, ptr %74, i64 %76
  %78 = getelementptr inbounds nuw %struct.AVComplexDouble, ptr %77, i32 0, i32 1
  %79 = load double, ptr %78, align 8, !tbaa !34
  %80 = getelementptr inbounds nuw %struct.AVComplexDouble, ptr %17, i32 0, i32 0
  %81 = load double, ptr %80, align 8, !tbaa !32
  %82 = fmul nsz double %79, %81
  %83 = call nsz double @llvm.fmuladd.f64(double %71, double %73, double %82)
  %84 = getelementptr inbounds nuw %struct.AVComplexDouble, ptr %16, i32 0, i32 1
  store double %83, ptr %84, align 8, !tbaa !34
  br label %85

85:                                               ; preds = %45
  br label %86

86:                                               ; preds = %85
  %87 = getelementptr inbounds nuw %struct.AVComplexDouble, ptr %16, i32 0, i32 0
  %88 = load double, ptr %87, align 8, !tbaa !32
  %89 = getelementptr inbounds nuw %struct.AVComplexDouble, ptr %14, i32 0, i32 0
  %90 = load double, ptr %89, align 8, !tbaa !32
  %91 = fadd nsz double %90, %88
  store double %91, ptr %89, align 8, !tbaa !32
  %92 = getelementptr inbounds nuw %struct.AVComplexDouble, ptr %16, i32 0, i32 1
  %93 = load double, ptr %92, align 8, !tbaa !34
  %94 = getelementptr inbounds nuw %struct.AVComplexDouble, ptr %14, i32 0, i32 1
  %95 = load double, ptr %94, align 8, !tbaa !34
  %96 = fadd nsz double %95, %93
  store double %96, ptr %94, align 8, !tbaa !34
  call void @llvm.lifetime.end.p0(i64 16, ptr %17) #10
  call void @llvm.lifetime.end.p0(i64 16, ptr %16) #10
  br label %97

97:                                               ; preds = %86
  %98 = load i32, ptr %15, align 4, !tbaa !4
  %99 = add nsw i32 %98, 1
  store i32 %99, ptr %15, align 4, !tbaa !4
  br label %31, !llvm.loop !87

100:                                              ; preds = %35
  %101 = load ptr, ptr %10, align 8, !tbaa !59
  %102 = load i32, ptr %12, align 4, !tbaa !4
  %103 = sext i32 %102 to i64
  %104 = load i64, ptr %8, align 8, !tbaa !30
  %105 = mul nsw i64 %103, %104
  %106 = getelementptr inbounds %struct.AVComplexDouble, ptr %101, i64 %105
  call void @llvm.memcpy.p0.p0.i64(ptr align 8 %106, ptr align 8 %14, i64 16, i1 false), !tbaa.struct !35
  call void @llvm.lifetime.end.p0(i64 16, ptr %14) #10
  br label %107

107:                                              ; preds = %100
  %108 = load i32, ptr %12, align 4, !tbaa !4
  %109 = add nsw i32 %108, 1
  store i32 %109, ptr %12, align 4, !tbaa !4
  br label %25, !llvm.loop !88

110:                                              ; preds = %29
  call void @llvm.lifetime.end.p0(i64 4, ptr %11) #10
  call void @llvm.lifetime.end.p0(i64 8, ptr %10) #10
  call void @llvm.lifetime.end.p0(i64 8, ptr %9) #10
  ret void
}