; Function Attrs: nofree norecurse nosync nounwind memory(read, argmem: readwrite, inaccessiblemem: none) uwtable
define internal void @ff_tx_fft_naive_small_double_c(ptr noundef readonly captures(none) %0, ptr noundef writeonly captures(none) %1, ptr noundef readonly captures(none) %2, i64 noundef %3) #12 {
  %5 = load i32, ptr %0, align 8, !tbaa !16
  %6 = lshr i64 %3, 4
  %7 = icmp sgt i32 %5, 0
  br i1 %7, label %.preheader.lr.ph, label %._crit_edge34

.preheader.lr.ph:                                 ; preds = %4
  %8 = getelementptr inbounds nuw i8, ptr %0, i64 16
  %9 = load ptr, ptr %8, align 8, !tbaa !26
  %wide.trip.count40 = zext nneg i32 %5 to i64
  br label %.preheader.us

.preheader.us:                                    ; preds = %._crit_edge.us, %.preheader.lr.ph
  %indvars.iv37 = phi i64 [ %indvars.iv.next38, %._crit_edge.us ], [ 0, %.preheader.lr.ph ]
  br label %10

10:                                               ; preds = %.preheader.us, %10
  %indvars.iv = phi i64 [ 0, %.preheader.us ], [ %indvars.iv.next, %10 ]
  %.sroa.010.131.us = phi double [ 0.000000e+00, %.preheader.us ], [ %22, %10 ]
  %.sroa.6.129.us = phi double [ 0.000000e+00, %.preheader.us ], [ %23, %10 ]
  %11 = mul nuw nsw i64 %indvars.iv, %indvars.iv37
  %12 = getelementptr inbounds nuw %struct.AVComplexDouble, ptr %9, i64 %11
  %.sroa.0.0.copyload.us = load double, ptr %12, align 8, !tbaa !27
  %.sroa.5.0..sroa_idx.us = getelementptr inbounds nuw i8, ptr %12, i64 8
  %.sroa.5.0.copyload.us = load double, ptr %.sroa.5.0..sroa_idx.us, align 8, !tbaa !27
  %13 = getelementptr inbounds nuw %struct.AVComplexDouble, ptr %2, i64 %indvars.iv
  %14 = load double, ptr %13, align 8, !tbaa !50
  %15 = getelementptr inbounds nuw i8, ptr %13, i64 8
  %16 = load double, ptr %15, align 8, !tbaa !52
  %17 = fneg nsz double %.sroa.5.0.copyload.us
  %18 = fmul nsz double %16, %17
  %19 = tail call nsz double @llvm.fmuladd.f64(double %14, double %.sroa.0.0.copyload.us, double %18)
  %20 = fmul nsz double %.sroa.0.0.copyload.us, %16
  %21 = tail call nsz double @llvm.fmuladd.f64(double %14, double %.sroa.5.0.copyload.us, double %20)
  %22 = fadd nsz double %.sroa.010.131.us, %19
  %23 = fadd nsz double %.sroa.6.129.us, %21
  %indvars.iv.next = add nuw nsw i64 %indvars.iv, 1
  %exitcond.not = icmp eq i64 %indvars.iv.next, %wide.trip.count40
  br i1 %exitcond.not, label %._crit_edge.us, label %10, !llvm.loop !78

._crit_edge.us:                                   ; preds = %10
  %24 = mul nuw nsw i64 %6, %indvars.iv37
  %25 = getelementptr inbounds nuw %struct.AVComplexDouble, ptr %1, i64 %24
  store double %22, ptr %25, align 8, !tbaa !27
  %.sroa.6.0..sroa_idx.us = getelementptr inbounds nuw i8, ptr %25, i64 8
  store double %23, ptr %.sroa.6.0..sroa_idx.us, align 8, !tbaa !27
  %indvars.iv.next38 = add nuw nsw i64 %indvars.iv37, 1
  %exitcond41.not = icmp eq i64 %indvars.iv.next38, %wide.trip.count40
  br i1 %exitcond41.not, label %._crit_edge34, label %.preheader.us, !llvm.loop !79

._crit_edge34:                                    ; preds = %._crit_edge.us, %4
  ret void
}